target datalayout = "e-m:e-p270:32:32-p271:32:32-p272:64:64-i64:64-i128:128-f80:128-n8:16:32:64-S128"
target triple = "x86_64-pc-linux-gnu"

%struct.dsa_area_control = type { %struct.dsa_segment_header, i32, [1024 x i32], [16 x i64], [38 x %struct.dsa_area_pool], i64, i64, i64, i64, i64, i32, i8, i64, i32, %struct.LWLock }
%struct.dsa_segment_header = type { i32, i64, i64, i64, i64, i64, i8 }
%struct.dsa_area_pool = type { %struct.LWLock, [4 x i64] }
%struct.LWLock = type { i16, %struct.pg_atomic_uint32, %struct.proclist_head }
%struct.pg_atomic_uint32 = type { i32 }
%struct.proclist_head = type { i32, i32 }
%struct.dsa_area = type { ptr, ptr, [1024 x %struct.dsa_segment_map], i64, i64 }
%struct.dsa_segment_map = type { ptr, ptr, ptr, ptr, ptr }

; Function Attrs: nounwind uwtable
define internal void @check_for_freed_segments_locked(ptr noundef %0) #0 {
  %2 = alloca ptr, align 8
  %3 = alloca i64, align 8
  %4 = alloca i32, align 4
  store ptr %0, ptr %2, align 8
  call void @llvm.lifetime.start.p0(i64 8, ptr %3) #8
  call void @llvm.lifetime.start.p0(i64 4, ptr %4) #8
  %5 = load ptr, ptr %2, align 8
  %6 = getelementptr inbounds nuw %struct.dsa_area, ptr %5, i32 0, i32 0
  %7 = load ptr, ptr %6, align 8
  %8 = getelementptr inbounds nuw %struct.dsa_area_control, ptr %7, i32 0, i32 12
  %9 = load i64, ptr %8, align 8
  store i64 %9, ptr %3, align 8
  %10 = load ptr, ptr %2, align 8
  %11 = getelementptr inbounds nuw %struct.dsa_area, ptr %10, i32 0, i32 4
  %12 = load i64, ptr %11, align 8
  %13 = load i64, ptr %3, align 8
  %14 = icmp ne i64 %12, %13
  %15 = zext i1 %14 to i32
  %16 = icmp ne i32 %15, 0
  %17 = zext i1 %16 to i32
  %18 = sext i32 %17 to i64
  %19 = call i64 @llvm.expect.i64(i64 %18, i64 0)
  %20 = icmp ne i64 %19, 0
  br i1 %20, label %21, label %83

21:                                               ; preds = %1
  store i32 0, ptr %4, align 4
  br label %22

22:                                               ; preds = %76, %21
  %23 = load i32, ptr %4, align 4
  %24 = sext i32 %23 to i64
  %25 = load ptr, ptr %2, align 8
  %26 = getelementptr inbounds nuw %struct.dsa_area, ptr %25, i32 0, i32 3
  %27 = load i64, ptr %26, align 8
  %28 = icmp ule i64 %24, %27
  br i1 %28, label %29, label %79

29:                                               ; preds = %22
  %30 = load ptr, ptr %2, align 8
  %31 = getelementptr inbounds nuw %struct.dsa_area, ptr %30, i32 0, i32 2
  %32 = load i32, ptr %4, align 4
  %33 = sext i32 %32 to i64
  %34 = getelementptr inbounds [1024 x %struct.dsa_segment_map], ptr %31, i64 0, i64 %33
  %35 = getelementptr inbounds nuw %struct.dsa_segment_map, ptr %34, i32 0, i32 2
  %36 = load ptr, ptr %35, align 8
  %37 = icmp ne ptr %36, null
  br i1 %37, label %38, label %75

38:                                               ; preds = %29
  %39 = load ptr, ptr %2, align 8
  %40 = getelementptr inbounds nuw %struct.dsa_area, ptr %39, i32 0, i32 2
  %41 = load i32, ptr %4, align 4
  %42 = sext i32 %41 to i64
  %43 = getelementptr inbounds [1024 x %struct.dsa_segment_map], ptr %40, i64 0, i64 %42
  %44 = getelementptr inbounds nuw %struct.dsa_segment_map, ptr %43, i32 0, i32 2
  %45 = load ptr, ptr %44, align 8
  %46 = getelementptr inbounds nuw %struct.dsa_segment_header, ptr %45, i32 0, i32 6
  %47 = load i8, ptr %46, align 8, !range !14, !noundef !15
  %48 = trunc i8 %47 to i1
  br i1 %48, label %49, label %75

49:                                               ; preds = %38
  %50 = load ptr, ptr %2, align 8
  %51 = getelementptr inbounds nuw %struct.dsa_area, ptr %50, i32 0, i32 2
  %52 = load i32, ptr %4, align 4
  %53 = sext i32 %52 to i64
  %54 = getelementptr inbounds [1024 x %struct.dsa_segment_map], ptr %51, i64 0, i64 %53
  %55 = getelementptr inbounds nuw %struct.dsa_segment_map, ptr %54, i32 0, i32 0
  %56 = load ptr, ptr %55, align 8
  call void @dsm_detach(ptr noundef %56)
  %57 = load ptr, ptr %2, align 8
  %58 = getelementptr inbounds nuw %struct.dsa_area, ptr %57, i32 0, i32 2
  %59 = load i32, ptr %4, align 4
  %60 = sext i32 %59 to i64
  %61 = getelementptr inbounds [1024 x %struct.dsa_segment_map], ptr %58, i64 0, i64 %60
  %62 = getelementptr inbounds nuw %struct.dsa_segment_map, ptr %61, i32 0, i32 0
  store ptr null, ptr %62, align 8
  %63 = load ptr, ptr %2, align 8
  %64 = getelementptr inbounds nuw %struct.dsa_area, ptr %63, i32 0, i32 2
  %65 = load i32, ptr %4, align 4
  %66 = sext i32 %65 to i64
  %67 = getelementptr inbounds [1024 x %struct.dsa_segment_map], ptr %64, i64 0, i64 %66
  %68 = getelementptr inbounds nuw %struct.dsa_segment_map, ptr %67, i32 0, i32 2
  store ptr null, ptr %68, align 8
  %69 = load ptr, ptr %2, align 8
  %70 = getelementptr inbounds nuw %struct.dsa_area, ptr %69, i32 0, i32 2
  %71 = load i32, ptr %4, align 4
  %72 = sext i32 %71 to i64
  %73 = getelementptr inbounds [1024 x %struct.dsa_segment_map], ptr %70, i64 0, i64 %72
  %74 = getelementptr inbounds nuw %struct.dsa_segment_map, ptr %73, i32 0, i32 1
  store ptr null, ptr %74, align 8
  br label %75

75:                                               ; preds = %49, %38, %29
  br label %76

76:                                               ; preds = %75
  %77 = load i32, ptr %4, align 4
  %78 = add i32 %77, 1
  store i32 %78, ptr %4, align 4
  br label %22, !llvm.loop !24

79:                                               ; preds = %22
  %80 = load i64, ptr %3, align 8
  %81 = load ptr, ptr %2, align 8
  %82 = getelementptr inbounds nuw %struct.dsa_area, ptr %81, i32 0, i32 4
  store i64 %80, ptr %82, align 8
  br label %83

83:                                               ; preds = %79, %1
  call void @llvm.lifetime.end.p0(i64 4, ptr %4) #8
  call void @llvm.lifetime.end.p0(i64 8, ptr %3) #8
  ret void
}