; Function Attrs: nounwind uwtable
define internal fastcc void @check_for_freed_segments_locked(ptr noundef captures(none) %0) unnamed_addr #0 {
  %2 = load ptr, ptr %0, align 8
  %3 = getelementptr inbounds nuw i8, ptr %2, i64 6160
  %4 = load i64, ptr %3, align 8
  %5 = getelementptr inbounds nuw i8, ptr %0, i64 40984
  %6 = load i64, ptr %5, align 8
  %.not = icmp eq i64 %6, %4
  br i1 %.not, label %25, label %.preheader, !prof !10

.preheader:                                       ; preds = %1
  %7 = getelementptr inbounds nuw i8, ptr %0, i64 40976
  %8 = getelementptr inbounds nuw i8, ptr %0, i64 16
  br label %9

9:                                                ; preds = %.preheader, %20
  %10 = phi i64 [ 0, %.preheader ], [ %22, %20 ]
  %.024 = phi i32 [ 0, %.preheader ], [ %21, %20 ]
  %11 = getelementptr inbounds [1024 x %struct.dsa_segment_map], ptr %8, i64 0, i64 %10
  %12 = getelementptr inbounds nuw i8, ptr %11, i64 16
  %13 = load ptr, ptr %12, align 8
  %.not23 = icmp eq ptr %13, null
  br i1 %.not23, label %20, label %14

14:                                               ; preds = %9
  %15 = getelementptr inbounds nuw i8, ptr %13, i64 48
  %16 = load i8, ptr %15, align 8, !range !15, !noundef !16
  %17 = trunc nuw i8 %16 to i1
  br i1 %17, label %18, label %20

18:                                               ; preds = %14
  %19 = load ptr, ptr %11, align 8
  tail call void @dsm_detach(ptr noundef %19) #11
  tail call void @llvm.memset.p0.i64(ptr noundef nonnull align 8 dereferenceable(24) %11, i8 0, i64 24, i1 false)
  br label %20

20:                                               ; preds = %9, %14, %18
  %21 = add i32 %.024, 1
  %22 = sext i32 %21 to i64
  %23 = load i64, ptr %7, align 8
  %.not22 = icmp ult i64 %23, %22
  br i1 %.not22, label %24, label %9, !llvm.loop !17

24:                                               ; preds = %20
  store i64 %4, ptr %5, align 8
  br label %25

25:                                               ; preds = %24, %1
  ret void
}